target datalayout = "e-m:e-p270:32:32-p271:32:32-p272:64:64-i64:64-i128:128-f80:128-n8:16:32:64-S128"
target triple = "x86_64-pc-linux-gnu"

%class.SSAO = type <{ %class.DecorateShader, float, float, i32, i32, i32, i32, i32, i32, i32, i32, i32, i32, i32, i32, i32, i32, i32, i32, i32, [4 x i8] }>
%class.DecorateShader = type { ptr, i8, i32, i32, i32 }

@_ZTV4SSAO = unnamed_addr constant { [8 x ptr] } { [8 x ptr] [ptr null, ptr @_ZTI4SSAO, ptr @_ZN4SSAOD1Ev, ptr @_ZN4SSAOD0Ev, ptr @_ZN4SSAO4initEv, ptr @_ZN4SSAO9runShaderER12MeshDocumentP6GLArea, ptr @_ZN4SSAO18setShadowIntensityEf, ptr @_ZN4SSAO5setupEv] }, align 8
@__glewDetachShader = external global ptr, align 8
@__glewDeleteShader = external global ptr, align 8
@__glewDeleteProgram = external global ptr, align 8
@__glewDeleteFramebuffers = external global ptr, align 8

; Function Attrs: mustprogress nounwind uwtable
define linkonce_odr void @_ZN14DecorateShaderD2Ev(ptr noundef nonnull align 8 dereferenceable(24) %0) unnamed_addr #0 comdat align 2 {
  %2 = alloca ptr, align 8
  store ptr %0, ptr %2, align 8
  ret void
}

; Function Attrs: mustprogress nounwind uwtable
define void @_ZN4SSAOD2Ev(ptr noundef nonnull align 8 dereferenceable(100) %0) unnamed_addr #0 align 2 personality ptr @__gxx_personality_v0 {
  %2 = alloca ptr, align 8
  store ptr %0, ptr %2, align 8
  %3 = load ptr, ptr %2, align 8
  store ptr getelementptr inbounds ({ [8 x ptr] }, ptr @_ZTV4SSAO, i32 0, i32 0, i32 2), ptr %3, align 8
  %4 = load ptr, ptr @__glewDetachShader, align 8
  %5 = getelementptr inbounds %class.SSAO, ptr %3, i32 0, i32 11
  %6 = load i32, ptr %5, align 8
  %7 = getelementptr inbounds %class.SSAO, ptr %3, i32 0, i32 12
  %8 = load i32, ptr %7, align 4
  invoke void %4(i32 noundef %6, i32 noundef %8)
          to label %9 unwind label %93

9:                                                ; preds = %1
  %10 = load ptr, ptr @__glewDetachShader, align 8
  %11 = getelementptr inbounds %class.SSAO, ptr %3, i32 0, i32 11
  %12 = load i32, ptr %11, align 8
  %13 = getelementptr inbounds %class.SSAO, ptr %3, i32 0, i32 13
  %14 = load i32, ptr %13, align 8
  invoke void %10(i32 noundef %12, i32 noundef %14)
          to label %15 unwind label %93

15:                                               ; preds = %9
  %16 = load ptr, ptr @__glewDeleteShader, align 8
  %17 = getelementptr inbounds %class.SSAO, ptr %3, i32 0, i32 12
  %18 = load i32, ptr %17, align 4
  invoke void %16(i32 noundef %18)
          to label %19 unwind label %93

19:                                               ; preds = %15
  %20 = load ptr, ptr @__glewDeleteShader, align 8
  %21 = getelementptr inbounds %class.SSAO, ptr %3, i32 0, i32 13
  %22 = load i32, ptr %21, align 8
  invoke void %20(i32 noundef %22)
          to label %23 unwind label %93

23:                                               ; preds = %19
  %24 = load ptr, ptr @__glewDeleteProgram, align 8
  %25 = getelementptr inbounds %class.SSAO, ptr %3, i32 0, i32 11
  %26 = load i32, ptr %25, align 8
  invoke void %24(i32 noundef %26)
          to label %27 unwind label %93

27:                                               ; preds = %23
  %28 = load ptr, ptr @__glewDetachShader, align 8
  %29 = getelementptr inbounds %class.SSAO, ptr %3, i32 0, i32 14
  %30 = load i32, ptr %29, align 4
  %31 = getelementptr inbounds %class.SSAO, ptr %3, i32 0, i32 15
  %32 = load i32, ptr %31, align 8
  invoke void %28(i32 noundef %30, i32 noundef %32)
          to label %33 unwind label %93

33:                                               ; preds = %27
  %34 = load ptr, ptr @__glewDetachShader, align 8
  %35 = getelementptr inbounds %class.SSAO, ptr %3, i32 0, i32 14
  %36 = load i32, ptr %35, align 4
  %37 = getelementptr inbounds %class.SSAO, ptr %3, i32 0, i32 16
  %38 = load i32, ptr %37, align 4
  invoke void %34(i32 noundef %36, i32 noundef %38)
          to label %39 unwind label %93

39:                                               ; preds = %33
  %40 = load ptr, ptr @__glewDeleteShader, align 8
  %41 = getelementptr inbounds %class.SSAO, ptr %3, i32 0, i32 15
  %42 = load i32, ptr %41, align 8
  invoke void %40(i32 noundef %42)
          to label %43 unwind label %93

43:                                               ; preds = %39
  %44 = load ptr, ptr @__glewDeleteShader, align 8
  %45 = getelementptr inbounds %class.SSAO, ptr %3, i32 0, i32 16
  %46 = load i32, ptr %45, align 4
  invoke void %44(i32 noundef %46)
          to label %47 unwind label %93

47:                                               ; preds = %43
  %48 = load ptr, ptr @__glewDeleteProgram, align 8
  %49 = getelementptr inbounds %class.SSAO, ptr %3, i32 0, i32 14
  %50 = load i32, ptr %49, align 4
  invoke void %48(i32 noundef %50)
          to label %51 unwind label %93

51:                                               ; preds = %47
  %52 = load ptr, ptr @__glewDetachShader, align 8
  %53 = getelementptr inbounds %class.SSAO, ptr %3, i32 0, i32 17
  %54 = load i32, ptr %53, align 8
  %55 = getelementptr inbounds %class.SSAO, ptr %3, i32 0, i32 18
  %56 = load i32, ptr %55, align 4
  invoke void %52(i32 noundef %54, i32 noundef %56)
          to label %57 unwind label %93

57:                                               ; preds = %51
  %58 = load ptr, ptr @__glewDetachShader, align 8
  %59 = getelementptr inbounds %class.SSAO, ptr %3, i32 0, i32 17
  %60 = load i32, ptr %59, align 8
  %61 = getelementptr inbounds %class.SSAO, ptr %3, i32 0, i32 19
  %62 = load i32, ptr %61, align 8
  invoke void %58(i32 noundef %60, i32 noundef %62)
          to label %63 unwind label %93

63:                                               ; preds = %57
  %64 = load ptr, ptr @__glewDeleteShader, align 8
  %65 = getelementptr inbounds %class.SSAO, ptr %3, i32 0, i32 18
  %66 = load i32, ptr %65, align 4
  invoke void %64(i32 noundef %66)
          to label %67 unwind label %93

67:                                               ; preds = %63
  %68 = load ptr, ptr @__glewDeleteShader, align 8
  %69 = getelementptr inbounds %class.SSAO, ptr %3, i32 0, i32 19
  %70 = load i32, ptr %69, align 8
  invoke void %68(i32 noundef %70)
          to label %71 unwind label %93

71:                                               ; preds = %67
  %72 = load ptr, ptr @__glewDeleteProgram, align 8
  %73 = getelementptr inbounds %class.SSAO, ptr %3, i32 0, i32 17
  %74 = load i32, ptr %73, align 8
  invoke void %72(i32 noundef %74)
          to label %75 unwind label %93

75:                                               ; preds = %71
  %76 = getelementptr inbounds %class.SSAO, ptr %3, i32 0, i32 5
  invoke void @glDeleteTextures(i32 noundef 1, ptr noundef %76)
          to label %77 unwind label %93

77:                                               ; preds = %75
  %78 = getelementptr inbounds %class.SSAO, ptr %3, i32 0, i32 8
  invoke void @glDeleteTextures(i32 noundef 1, ptr noundef %78)
          to label %79 unwind label %93

79:                                               ; preds = %77
  %80 = load ptr, ptr @__glewDeleteFramebuffers, align 8
  %81 = getelementptr inbounds %class.SSAO, ptr %3, i32 0, i32 9
  invoke void %80(i32 noundef 1, ptr noundef %81)
          to label %82 unwind label %93

82:                                               ; preds = %79
  %83 = getelementptr inbounds %class.SSAO, ptr %3, i32 0, i32 6
  invoke void @glDeleteTextures(i32 noundef 1, ptr noundef %83)
          to label %84 unwind label %93

84:                                               ; preds = %82
  %85 = getelementptr inbounds %class.SSAO, ptr %3, i32 0, i32 6
  invoke void @glDeleteTextures(i32 noundef 1, ptr noundef %85)
          to label %86 unwind label %93

86:                                               ; preds = %84
  %87 = load ptr, ptr @__glewDeleteFramebuffers, align 8
  %88 = getelementptr inbounds %class.DecorateShader, ptr %3, i32 0, i32 4
  invoke void %87(i32 noundef 1, ptr noundef %88)
          to label %89 unwind label %93

89:                                               ; preds = %86
  %90 = load ptr, ptr @__glewDeleteFramebuffers, align 8
  %91 = getelementptr inbounds %class.SSAO, ptr %3, i32 0, i32 10
  invoke void %90(i32 noundef 1, ptr noundef %91)
          to label %92 unwind label %93

92:                                               ; preds = %89
  call void @_ZN14DecorateShaderD2Ev(ptr noundef nonnull align 8 dereferenceable(24) %3) #5
  ret void

93:                                               ; preds = %89, %86, %84, %82, %79, %77, %75, %71, %67, %63, %57, %51, %47, %43, %39, %33, %27, %23, %19, %15, %9, %1
  %94 = landingpad { ptr, i32 }
          catch ptr null
  %95 = extractvalue { ptr, i32 } %94, 0
  call void @__clang_call_terminate(ptr %95) #19
  unreachable
}