; Function Attrs: mustprogress nounwind uwtable
define void @_ZN4SSAOD2Ev(ptr noundef nonnull align 8 dereferenceable(100) %0) unnamed_addr #0 align 2 personality ptr @__gxx_personality_v0 {
  store ptr getelementptr inbounds ({ [8 x ptr] }, ptr @_ZTV4SSAO, i64 0, i32 0, i64 2), ptr %0, align 8
  %2 = load ptr, ptr @__glewDetachShader, align 8
  %3 = getelementptr inbounds i8, ptr %0, i64 64
  %4 = load i32, ptr %3, align 8
  %5 = getelementptr inbounds i8, ptr %0, i64 68
  %6 = load i32, ptr %5, align 4
  invoke void %2(i32 noundef %4, i32 noundef %6)
          to label %7 unwind label %78

7:                                                ; preds = %1
  %8 = load ptr, ptr @__glewDetachShader, align 8
  %9 = load i32, ptr %3, align 8
  %10 = getelementptr inbounds i8, ptr %0, i64 72
  %11 = load i32, ptr %10, align 8
  invoke void %8(i32 noundef %9, i32 noundef %11)
          to label %12 unwind label %78

12:                                               ; preds = %7
  %13 = load ptr, ptr @__glewDeleteShader, align 8
  %14 = load i32, ptr %5, align 4
  invoke void %13(i32 noundef %14)
          to label %15 unwind label %78

15:                                               ; preds = %12
  %16 = load ptr, ptr @__glewDeleteShader, align 8
  %17 = load i32, ptr %10, align 8
  invoke void %16(i32 noundef %17)
          to label %18 unwind label %78

18:                                               ; preds = %15
  %19 = load ptr, ptr @__glewDeleteProgram, align 8
  %20 = load i32, ptr %3, align 8
  invoke void %19(i32 noundef %20)
          to label %21 unwind label %78

21:                                               ; preds = %18
  %22 = load ptr, ptr @__glewDetachShader, align 8
  %23 = getelementptr inbounds i8, ptr %0, i64 76
  %24 = load i32, ptr %23, align 4
  %25 = getelementptr inbounds i8, ptr %0, i64 80
  %26 = load i32, ptr %25, align 8
  invoke void %22(i32 noundef %24, i32 noundef %26)
          to label %27 unwind label %78

27:                                               ; preds = %21
  %28 = load ptr, ptr @__glewDetachShader, align 8
  %29 = load i32, ptr %23, align 4
  %30 = getelementptr inbounds i8, ptr %0, i64 84
  %31 = load i32, ptr %30, align 4
  invoke void %28(i32 noundef %29, i32 noundef %31)
          to label %32 unwind label %78

32:                                               ; preds = %27
  %33 = load ptr, ptr @__glewDeleteShader, align 8
  %34 = load i32, ptr %25, align 8
  invoke void %33(i32 noundef %34)
          to label %35 unwind label %78

35:                                               ; preds = %32
  %36 = load ptr, ptr @__glewDeleteShader, align 8
  %37 = load i32, ptr %30, align 4
  invoke void %36(i32 noundef %37)
          to label %38 unwind label %78

38:                                               ; preds = %35
  %39 = load ptr, ptr @__glewDeleteProgram, align 8
  %40 = load i32, ptr %23, align 4
  invoke void %39(i32 noundef %40)
          to label %41 unwind label %78

41:                                               ; preds = %38
  %42 = load ptr, ptr @__glewDetachShader, align 8
  %43 = getelementptr inbounds i8, ptr %0, i64 88
  %44 = load i32, ptr %43, align 8
  %45 = getelementptr inbounds i8, ptr %0, i64 92
  %46 = load i32, ptr %45, align 4
  invoke void %42(i32 noundef %44, i32 noundef %46)
          to label %47 unwind label %78

47:                                               ; preds = %41
  %48 = load ptr, ptr @__glewDetachShader, align 8
  %49 = load i32, ptr %43, align 8
  %50 = getelementptr inbounds i8, ptr %0, i64 96
  %51 = load i32, ptr %50, align 8
  invoke void %48(i32 noundef %49, i32 noundef %51)
          to label %52 unwind label %78

52:                                               ; preds = %47
  %53 = load ptr, ptr @__glewDeleteShader, align 8
  %54 = load i32, ptr %45, align 4
  invoke void %53(i32 noundef %54)
          to label %55 unwind label %78

55:                                               ; preds = %52
  %56 = load ptr, ptr @__glewDeleteShader, align 8
  %57 = load i32, ptr %50, align 8
  invoke void %56(i32 noundef %57)
          to label %58 unwind label %78

58:                                               ; preds = %55
  %59 = load ptr, ptr @__glewDeleteProgram, align 8
  %60 = load i32, ptr %43, align 8
  invoke void %59(i32 noundef %60)
          to label %61 unwind label %78

61:                                               ; preds = %58
  %62 = getelementptr inbounds i8, ptr %0, i64 40
  invoke void @glDeleteTextures(i32 noundef 1, ptr noundef nonnull %62)
          to label %63 unwind label %78

63:                                               ; preds = %61
  %64 = getelementptr inbounds i8, ptr %0, i64 52
  invoke void @glDeleteTextures(i32 noundef 1, ptr noundef nonnull %64)
          to label %65 unwind label %78

65:                                               ; preds = %63
  %66 = load ptr, ptr @__glewDeleteFramebuffers, align 8
  %67 = getelementptr inbounds i8, ptr %0, i64 56
  invoke void %66(i32 noundef 1, ptr noundef nonnull %67)
          to label %68 unwind label %78

68:                                               ; preds = %65
  %69 = getelementptr inbounds i8, ptr %0, i64 44
  invoke void @glDeleteTextures(i32 noundef 1, ptr noundef nonnull %69)
          to label %70 unwind label %78

70:                                               ; preds = %68
  invoke void @glDeleteTextures(i32 noundef 1, ptr noundef nonnull %69)
          to label %71 unwind label %78

71:                                               ; preds = %70
  %72 = load ptr, ptr @__glewDeleteFramebuffers, align 8
  %73 = getelementptr inbounds i8, ptr %0, i64 20
  invoke void %72(i32 noundef 1, ptr noundef nonnull %73)
          to label %74 unwind label %78

74:                                               ; preds = %71
  %75 = load ptr, ptr @__glewDeleteFramebuffers, align 8
  %76 = getelementptr inbounds i8, ptr %0, i64 60
  invoke void %75(i32 noundef 1, ptr noundef nonnull %76)
          to label %77 unwind label %78

77:                                               ; preds = %74
  ret void

78:                                               ; preds = %74, %71, %70, %68, %65, %63, %61, %58, %55, %52, %47, %41, %38, %35, %32, %27, %21, %18, %15, %12, %7, %1
  %79 = landingpad { ptr, i32 }
          catch ptr null
  %80 = extractvalue { ptr, i32 } %79, 0
  tail call void @__clang_call_terminate(ptr %80) #24
  unreachable
}